target datalayout = "e-m:e-p270:32:32-p271:32:32-p272:64:64-i64:64-i128:128-f80:128-n8:16:32:64-S128"
target triple = "x86_64-pc-linux-gnu"

%struct._StringInfo = type { ptr, i32 }

@.str.853 = private unnamed_addr constant [5 x i8] c"dtls\00", align 1
@.str.883 = private unnamed_addr constant [10 x i8] c"keys_list\00", align 1
@dtls_decrypted_data = internal global %struct._StringInfo zeroinitializer, align 8
@dtls_compressed_data = internal global %struct._StringInfo zeroinitializer, align 8

; Function Attrs: null_pointer_is_valid sspstrong uwtable
define internal void @dtls_init() #0 {
  %1 = alloca ptr, align 8
  %2 = alloca ptr, align 8
  call void @llvm.lifetime.start.p0(i64 8, ptr %1) #12
  %3 = call ptr @prefs_find_module(ptr noundef @.str.853)
  store ptr %3, ptr %1, align 8
  call void @llvm.lifetime.start.p0(i64 8, ptr %2) #12
  %4 = call i32 @ssl_data_alloc(ptr noundef @dtls_decrypted_data, i64 noundef 32)
  %5 = call i32 @ssl_data_alloc(ptr noundef @dtls_compressed_data, i64 noundef 32)
  %6 = load ptr, ptr %1, align 8
  %7 = icmp ne ptr %6, null
  br i1 %7, label %8, label %17

8:                                                ; preds = %0
  %9 = load ptr, ptr %1, align 8
  %10 = call ptr @prefs_find_preference(ptr noundef %9, ptr noundef @.str.883)
  store ptr %10, ptr %2, align 8
  %11 = load ptr, ptr %2, align 8
  %12 = call zeroext i1 @prefs_get_preference_obsolete(ptr noundef %11)
  br i1 %12, label %16, label %13

13:                                               ; preds = %8
  %14 = load ptr, ptr %2, align 8
  %15 = call i32 @prefs_set_preference_obsolete(ptr noundef %14)
  br label %16

16:                                               ; preds = %13, %8
  br label %17

17:                                               ; preds = %16, %0
  call void @ssl_init_cid_list()
  call void @llvm.lifetime.end.p0(i64 8, ptr %2) #12
  call void @llvm.lifetime.end.p0(i64 8, ptr %1) #12
  ret void
}