; Function Attrs: null_pointer_is_valid sspstrong uwtable
define internal void @dtls_init() #0 {
  %1 = tail call ptr @prefs_find_module(ptr noundef nonnull @.str.853)
  %2 = tail call i32 @ssl_data_alloc(ptr noundef nonnull @dtls_decrypted_data, i64 noundef 32)
  %3 = tail call i32 @ssl_data_alloc(ptr noundef nonnull @dtls_compressed_data, i64 noundef 32)
  %.not = icmp eq ptr %1, null
  br i1 %.not, label %9, label %4

4:                                                ; preds = %0
  %5 = tail call ptr @prefs_find_preference(ptr noundef nonnull %1, ptr noundef nonnull @.str.883)
  %6 = tail call zeroext i1 @prefs_get_preference_obsolete(ptr noundef %5)
  br i1 %6, label %9, label %7

7:                                                ; preds = %4
  %8 = tail call i32 @prefs_set_preference_obsolete(ptr noundef %5)
  br label %9

9:                                                ; preds = %4, %7, %0
  tail call void @ssl_init_cid_list()
  ret void
}